; Function Attrs: mustprogress uwtable
define noundef zeroext i1 @_ZN5draco13DecodeSymbolsEjiPNS_13DecoderBufferEPj(i32 noundef %0, i32 noundef %1, ptr noundef %2, ptr noundef %3) local_unnamed_addr #3 {
  %5 = icmp eq i32 %0, 0
  br i1 %5, label %_ZN5draco13DecoderBuffer6DecodeIhEEbPT_.exit, label %6

6:                                                ; preds = %4
  %7 = getelementptr inbounds nuw i8, ptr %2, i64 8
  %8 = load i64, ptr %7, align 8, !tbaa !3
  %9 = getelementptr inbounds nuw i8, ptr %2, i64 16
  %10 = load i64, ptr %9, align 8, !tbaa !13
  %11 = add i64 %10, 1
  %.not = icmp slt i64 %8, %11
  br i1 %.not, label %_ZN5draco13DecoderBuffer6DecodeIhEEbPT_.exit, label %12

12:                                               ; preds = %6
  %13 = load ptr, ptr %2, align 8, !tbaa !14
  %14 = getelementptr inbounds i8, ptr %13, i64 %10
  %15 = load i8, ptr %14, align 1
  store i64 %11, ptr %9, align 8, !tbaa !13
  switch i8 %15, label %_ZN5draco13DecoderBuffer6DecodeIhEEbPT_.exit [
    i8 0, label %16
    i8 1, label %18
  ]

16:                                               ; preds = %12
  %17 = tail call noundef zeroext i1 @_ZN5draco19DecodeTaggedSymbolsINS_17RAnsSymbolDecoderEEEbjiPNS_13DecoderBufferEPj(i32 noundef %0, i32 noundef %1, ptr noundef nonnull %2, ptr noundef %3)
  br label %_ZN5draco13DecoderBuffer6DecodeIhEEbPT_.exit

18:                                               ; preds = %12
  %19 = tail call noundef zeroext i1 @_ZN5draco16DecodeRawSymbolsINS_17RAnsSymbolDecoderEEEbjPNS_13DecoderBufferEPj(i32 noundef %0, ptr noundef nonnull %2, ptr noundef %3)
  br label %_ZN5draco13DecoderBuffer6DecodeIhEEbPT_.exit

_ZN5draco13DecoderBuffer6DecodeIhEEbPT_.exit:     ; preds = %16, %18, %12, %6, %4
  %.0 = phi i1 [ true, %4 ], [ %17, %16 ], [ %19, %18 ], [ false, %12 ], [ false, %6 ]
  ret i1 %.0
}